target datalayout = "e-m:e-p270:32:32-p271:32:32-p272:64:64-i64:64-i128:128-f80:128-n8:16:32:64-S128"
target triple = "x86_64-pc-linux-gnu"

%struct.expert_field = type { i32, i32 }
%struct.MessageHeader = type { [4 x i8], %struct.Version, i8, i8, i32, i32, i32, ptr }
%struct.Version = type { i8, i8 }

@hf_GIAS_DataModelMgr_get_data_model_date_properties_loop = internal global i32 0, align 4
@hf_UCO_NameValue_aname = internal global i32 0, align 4
@ei_gias_unknown_giop_msg = internal global %struct.expert_field zeroinitializer, align 4
@ei_gias_unknown_exception = internal global %struct.expert_field zeroinitializer, align 4
@ett_giop_struct = internal global i32 0, align 4
@ett_giop_sequence = internal global i32 0, align 4
@boundary = internal global i32 12, align 4
@.str.826 = private unnamed_addr constant [21 x i8] c"Unknown exception %d\00", align 1
@.str.827 = private unnamed_addr constant [24 x i8] c"Unknown GIOP message %d\00", align 1
@.str.840 = private unnamed_addr constant [19 x i8] c"struct UCO_AbsTime\00", align 1
@.str.855 = private unnamed_addr constant [21 x i8] c"struct UCO_NameValue\00", align 1
@.str.934 = private unnamed_addr constant [58 x i8] c"sequence GIAS_DataModelMgr_get_data_model_date_properties\00", align 1

; Function Attrs: null_pointer_is_valid sspstrong uwtable
define internal void @decode_UCO_NameValue_st(ptr noundef %0, ptr noundef %1, ptr noundef %2, ptr noundef %3, ptr noundef %4, ptr noundef %5, ptr noundef %6, i1 noundef zeroext %7) #0 {
  %9 = alloca ptr, align 8
  %10 = alloca ptr, align 8
  %11 = alloca ptr, align 8
  %12 = alloca ptr, align 8
  %13 = alloca ptr, align 8
  %14 = alloca ptr, align 8
  %15 = alloca ptr, align 8
  %16 = alloca i8, align 1
  store ptr %0, ptr %9, align 8
  store ptr %1, ptr %10, align 8
  store ptr %2, ptr %11, align 8
  store ptr %3, ptr %12, align 8
  store ptr %4, ptr %13, align 8
  store ptr %5, ptr %14, align 8
  store ptr %6, ptr %15, align 8
  %17 = zext i1 %7 to i8
  store i8 %17, ptr %16, align 1
  %18 = load ptr, ptr %11, align 8
  %19 = load ptr, ptr %9, align 8
  %20 = load ptr, ptr %13, align 8
  %21 = load i8, ptr %16, align 1, !range !6, !noundef !7
  %22 = trunc i8 %21 to i1
  %23 = load i32, ptr @boundary, align 4
  %24 = load i32, ptr @hf_UCO_NameValue_aname, align 4
  call void @giop_add_CDR_string(ptr noundef %18, ptr noundef %19, ptr noundef %20, i1 noundef zeroext %22, i32 noundef %23, i32 noundef %24)
  %25 = load ptr, ptr %9, align 8
  %26 = load ptr, ptr %10, align 8
  %27 = load ptr, ptr %11, align 8
  %28 = load ptr, ptr %12, align 8
  %29 = load ptr, ptr %13, align 8
  %30 = load i8, ptr %16, align 1, !range !6, !noundef !7
  %31 = trunc i8 %30 to i1
  %32 = load i32, ptr @boundary, align 4
  %33 = load ptr, ptr %14, align 8
  call void @get_CDR_any(ptr noundef %25, ptr noundef %26, ptr noundef %27, ptr noundef %28, ptr noundef %29, i1 noundef zeroext %31, i32 noundef %32, ptr noundef %33)
  ret void
}

; Function Attrs: null_pointer_is_valid sspstrong uwtable
define internal void @decode_GIAS_DataModelMgr_get_data_model_date(ptr noundef %0, ptr noundef %1, ptr noundef %2, ptr noundef %3, ptr noundef %4, ptr noundef %5, ptr noundef %6, i1 noundef zeroext %7) #0 {
  %9 = alloca ptr, align 8
  %10 = alloca ptr, align 8
  %11 = alloca ptr, align 8
  %12 = alloca ptr, align 8
  %13 = alloca ptr, align 8
  %14 = alloca ptr, align 8
  %15 = alloca ptr, align 8
  %16 = alloca i8, align 1
  %17 = alloca i32, align 4
  %18 = alloca i32, align 4
  %19 = alloca ptr, align 8
  %20 = alloca ptr, align 8
  %21 = alloca ptr, align 8
  store ptr %0, ptr %9, align 8
  store ptr %1, ptr %10, align 8
  store ptr %2, ptr %11, align 8
  store ptr %3, ptr %12, align 8
  store ptr %4, ptr %13, align 8
  store ptr %5, ptr %14, align 8
  store ptr %6, ptr %15, align 8
  %22 = zext i1 %7 to i8
  store i8 %22, ptr %16, align 1
  call void @llvm.lifetime.start.p0(i64 4, ptr %17) #6
  call void @llvm.lifetime.start.p0(i64 4, ptr %18) #6
  %23 = load ptr, ptr %14, align 8
  %24 = getelementptr inbounds nuw %struct.MessageHeader, ptr %23, i32 0, i32 3
  %25 = load i8, ptr %24, align 1
  %26 = zext i8 %25 to i32
  switch i32 %26, label %102 [
    i32 0, label %27
    i32 1, label %74
  ]

27:                                               ; preds = %8
  %28 = load ptr, ptr %9, align 8
  %29 = load ptr, ptr %13, align 8
  %30 = load i8, ptr %16, align 1, !range !6, !noundef !7
  %31 = trunc i8 %30 to i1
  %32 = load i32, ptr @boundary, align 4
  %33 = call i32 @get_CDR_ulong(ptr noundef %28, ptr noundef %29, i1 noundef zeroext %31, i32 noundef %32)
  store i32 %33, ptr %17, align 4
  %34 = load ptr, ptr %11, align 8
  %35 = load i32, ptr @hf_GIAS_DataModelMgr_get_data_model_date_properties_loop, align 4
  %36 = load ptr, ptr %9, align 8
  %37 = load ptr, ptr %13, align 8
  %38 = load i32, ptr %37, align 4
  %39 = sub i32 %38, 4
  %40 = load i32, ptr %17, align 4
  %41 = call ptr @proto_tree_add_uint(ptr noundef %34, i32 noundef %35, ptr noundef %36, i32 noundef %39, i32 noundef 4, i32 noundef %40)
  call void @llvm.lifetime.start.p0(i64 8, ptr %19) #6
  %42 = load ptr, ptr %11, align 8
  store ptr %42, ptr %19, align 8
  %43 = load ptr, ptr %11, align 8
  %44 = load ptr, ptr %9, align 8
  %45 = load ptr, ptr %13, align 8
  %46 = load i32, ptr %45, align 4
  %47 = load i32, ptr @ett_giop_sequence, align 4
  %48 = call ptr @proto_tree_add_subtree(ptr noundef %43, ptr noundef %44, i32 noundef %46, i32 noundef -1, i32 noundef %47, ptr noundef null, ptr noundef @.str.934)
  store ptr %48, ptr %11, align 8
  store i32 0, ptr %18, align 4
  br label %49

49:                                               ; preds = %69, %27
  %50 = load i32, ptr %18, align 4
  %51 = load i32, ptr %17, align 4
  %52 = icmp ult i32 %50, %51
  br i1 %52, label %53, label %72

53:                                               ; preds = %49
  call void @llvm.lifetime.start.p0(i64 8, ptr %20) #6
  %54 = load ptr, ptr %11, align 8
  %55 = load ptr, ptr %9, align 8
  %56 = load ptr, ptr %13, align 8
  %57 = load i32, ptr %56, align 4
  %58 = load i32, ptr @ett_giop_struct, align 4
  %59 = call ptr @proto_tree_add_subtree(ptr noundef %54, ptr noundef %55, i32 noundef %57, i32 noundef -1, i32 noundef %58, ptr noundef null, ptr noundef @.str.855)
  store ptr %59, ptr %20, align 8
  %60 = load ptr, ptr %9, align 8
  %61 = load ptr, ptr %10, align 8
  %62 = load ptr, ptr %20, align 8
  %63 = load ptr, ptr %12, align 8
  %64 = load ptr, ptr %13, align 8
  %65 = load ptr, ptr %14, align 8
  %66 = load ptr, ptr %15, align 8
  %67 = load i8, ptr %16, align 1, !range !6, !noundef !7
  %68 = trunc i8 %67 to i1
  call void @decode_UCO_NameValue_st(ptr noundef %60, ptr noundef %61, ptr noundef %62, ptr noundef %63, ptr noundef %64, ptr noundef %65, ptr noundef %66, i1 noundef zeroext %68)
  call void @llvm.lifetime.end.p0(i64 8, ptr %20) #6
  br label %69

69:                                               ; preds = %53
  %70 = load i32, ptr %18, align 4
  %71 = add i32 %70, 1
  store i32 %71, ptr %18, align 4
  br label %49, !llvm.loop !59

72:                                               ; preds = %49
  %73 = load ptr, ptr %19, align 8
  store ptr %73, ptr %11, align 8
  call void @llvm.lifetime.end.p0(i64 8, ptr %19) #6
  br label %110

74:                                               ; preds = %8
  %75 = load ptr, ptr %14, align 8
  %76 = getelementptr inbounds nuw %struct.MessageHeader, ptr %75, i32 0, i32 6
  %77 = load i32, ptr %76, align 8
  switch i32 %77, label %94 [
    i32 0, label %78
    i32 1, label %101
  ]

78:                                               ; preds = %74
  call void @llvm.lifetime.start.p0(i64 8, ptr %21) #6
  %79 = load ptr, ptr %11, align 8
  %80 = load ptr, ptr %9, align 8
  %81 = load ptr, ptr %13, align 8
  %82 = load i32, ptr %81, align 4
  %83 = load i32, ptr @ett_giop_struct, align 4
  %84 = call ptr @proto_tree_add_subtree(ptr noundef %79, ptr noundef %80, i32 noundef %82, i32 noundef -1, i32 noundef %83, ptr noundef null, ptr noundef @.str.840)
  store ptr %84, ptr %21, align 8
  %85 = load ptr, ptr %9, align 8
  %86 = load ptr, ptr %10, align 8
  %87 = load ptr, ptr %21, align 8
  %88 = load ptr, ptr %12, align 8
  %89 = load ptr, ptr %13, align 8
  %90 = load ptr, ptr %14, align 8
  %91 = load ptr, ptr %15, align 8
  %92 = load i8, ptr %16, align 1, !range !6, !noundef !7
  %93 = trunc i8 %92 to i1
  call void @decode_UCO_AbsTime_st(ptr noundef %85, ptr noundef %86, ptr noundef %87, ptr noundef %88, ptr noundef %89, ptr noundef %90, ptr noundef %91, i1 noundef zeroext %93)
  call void @llvm.lifetime.end.p0(i64 8, ptr %21) #6
  br label %101

94:                                               ; preds = %74
  %95 = load ptr, ptr %10, align 8
  %96 = load ptr, ptr %12, align 8
  %97 = load ptr, ptr %14, align 8
  %98 = getelementptr inbounds nuw %struct.MessageHeader, ptr %97, i32 0, i32 6
  %99 = load i32, ptr %98, align 8
  %100 = call ptr (ptr, ptr, ptr, ptr, ...) @expert_add_info_format(ptr noundef %95, ptr noundef %96, ptr noundef @ei_gias_unknown_exception, ptr noundef @.str.826, i32 noundef %99)
  br label %101

101:                                              ; preds = %94, %74, %78
  br label %110

102:                                              ; preds = %8
  %103 = load ptr, ptr %10, align 8
  %104 = load ptr, ptr %12, align 8
  %105 = load ptr, ptr %14, align 8
  %106 = getelementptr inbounds nuw %struct.MessageHeader, ptr %105, i32 0, i32 3
  %107 = load i8, ptr %106, align 1
  %108 = zext i8 %107 to i32
  %109 = call ptr (ptr, ptr, ptr, ptr, ...) @expert_add_info_format(ptr noundef %103, ptr noundef %104, ptr noundef @ei_gias_unknown_giop_msg, ptr noundef @.str.827, i32 noundef %108)
  br label %110

110:                                              ; preds = %102, %101, %72
  call void @llvm.lifetime.end.p0(i64 4, ptr %18) #6
  call void @llvm.lifetime.end.p0(i64 4, ptr %17) #6
  ret void
}