; Function Attrs: null_pointer_is_valid sspstrong uwtable
define internal fastcc void @decode_GIAS_DataModelMgr_get_data_model_date(ptr noundef %0, ptr noundef %1, ptr noundef %2, ptr noundef %3, ptr noundef %4, ptr noundef %5, i1 noundef zeroext %6) unnamed_addr #0 {
  %8 = getelementptr inbounds nuw i8, ptr %5, i64 7
  %9 = load i8, ptr %8, align 1
  switch i8 %9, label %33 [
    i8 0, label %10
    i8 1, label %24
  ]

10:                                               ; preds = %7
  %11 = tail call i32 @get_CDR_ulong(ptr noundef %0, ptr noundef %4, i1 noundef zeroext %6, i32 noundef 12)
  %12 = load i32, ptr @hf_GIAS_DataModelMgr_get_data_model_date_properties_loop, align 4
  %13 = load i32, ptr %4, align 4
  %14 = add i32 %13, -4
  %15 = tail call ptr @proto_tree_add_uint(ptr noundef %2, i32 noundef %12, ptr noundef %0, i32 noundef %14, i32 noundef 4, i32 noundef %11)
  %16 = load i32, ptr %4, align 4
  %17 = load i32, ptr @ett_giop_sequence, align 4
  %18 = tail call ptr @proto_tree_add_subtree(ptr noundef %2, ptr noundef %0, i32 noundef %16, i32 noundef -1, i32 noundef %17, ptr noundef null, ptr noundef nonnull @.str.934)
  %.not = icmp eq i32 %11, 0
  br i1 %.not, label %.loopexit, label %.lr.ph

.lr.ph:                                           ; preds = %10, %.lr.ph
  %.01 = phi i32 [ %23, %.lr.ph ], [ 0, %10 ]
  %19 = load i32, ptr %4, align 4
  %20 = load i32, ptr @ett_giop_struct, align 4
  %21 = tail call ptr @proto_tree_add_subtree(ptr noundef %18, ptr noundef %0, i32 noundef %19, i32 noundef -1, i32 noundef %20, ptr noundef null, ptr noundef nonnull @.str.855)
  %22 = load i32, ptr @hf_UCO_NameValue_aname, align 4
  tail call void @giop_add_CDR_string(ptr noundef %21, ptr noundef %0, ptr noundef %4, i1 noundef zeroext %6, i32 noundef 12, i32 noundef %22)
  tail call void @get_CDR_any(ptr noundef %0, ptr noundef %1, ptr noundef %21, ptr noundef %3, ptr noundef %4, i1 noundef zeroext %6, i32 noundef 12, ptr noundef %5)
  %23 = add nuw i32 %.01, 1
  %exitcond.not = icmp eq i32 %23, %11
  br i1 %exitcond.not, label %.loopexit, label %.lr.ph, !llvm.loop !63

24:                                               ; preds = %7
  %25 = getelementptr inbounds nuw i8, ptr %5, i64 16
  %26 = load i32, ptr %25, align 8
  switch i32 %26, label %31 [
    i32 0, label %27
    i32 1, label %.loopexit
  ]

27:                                               ; preds = %24
  %28 = load i32, ptr %4, align 4
  %29 = load i32, ptr @ett_giop_struct, align 4
  %30 = tail call ptr @proto_tree_add_subtree(ptr noundef %2, ptr noundef %0, i32 noundef %28, i32 noundef -1, i32 noundef %29, ptr noundef null, ptr noundef nonnull @.str.840)
  tail call fastcc void @decode_UCO_AbsTime_st(ptr noundef %0, ptr noundef %30, ptr noundef %4, i1 noundef zeroext %6)
  br label %.loopexit

31:                                               ; preds = %24
  %32 = tail call ptr (ptr, ptr, ptr, ptr, ...) @expert_add_info_format(ptr noundef %1, ptr noundef %3, ptr noundef nonnull @ei_gias_unknown_exception, ptr noundef nonnull @.str.826, i32 noundef %26)
  br label %.loopexit

33:                                               ; preds = %7
  %34 = zext i8 %9 to i32
  %35 = tail call ptr (ptr, ptr, ptr, ptr, ...) @expert_add_info_format(ptr noundef %1, ptr noundef %3, ptr noundef nonnull @ei_gias_unknown_giop_msg, ptr noundef nonnull @.str.827, i32 noundef %34)
  br label %.loopexit

.loopexit:                                        ; preds = %.lr.ph, %10, %24, %27, %31, %33
  ret void
}